; ModuleID = '29/119.c'
source_filename = "29/119.c"
target datalayout = "e-m:e-p270:32:32-p271:32:32-p272:64:64-i64:64-f80:128-n8:16:32:64-S128"
target triple = "x86_64-pc-linux-gnu"

@.str = private unnamed_addr constant [3 x i8] c"%d\00", align 1
@.str.1 = private unnamed_addr constant [7 x i8] c"%.3lf\0A\00", align 1

; Function Attrs: noinline nounwind uwtable
define dso_local i32 @main() #0 {
  %1 = alloca i32, align 4
  %2 = alloca i32, align 4
  %3 = alloca i32, align 4
  %4 = alloca i32, align 4
  %5 = alloca i32, align 4
  %6 = alloca i32, align 4
  %7 = alloca [100 x double], align 16
  %8 = alloca [100 x double], align 16
  %9 = alloca [100 x double], align 16
  store i32 0, i32* %1, align 4
  %10 = call i32 (i8*, ...) @__isoc99_scanf(i8* getelementptr inbounds ([3 x i8], [3 x i8]* @.str, i64 0, i64 0), i32* %2)
  store i32 0, i32* %3, align 4
  br label %11

11:                                               ; preds = %96, %0
  %12 = load i32, i32* %3, align 4
  %13 = load i32, i32* %2, align 4
  %14 = icmp slt i32 %12, %13
  br i1 %14, label %15, label %99

15:                                               ; preds = %11
  %16 = call i32 (i8*, ...) @__isoc99_scanf(i8* getelementptr inbounds ([3 x i8], [3 x i8]* @.str, i64 0, i64 0), i32* %4)
  %17 = load i32, i32* %4, align 4
  store i32 %17, i32* %5, align 4
  %18 = load i32, i32* %5, align 4
  %19 = icmp eq i32 %18, 1
  br i1 %19, label %20, label %24

20:                                               ; preds = %15
  %21 = load i32, i32* %3, align 4
  %22 = sext i32 %21 to i64
  %23 = getelementptr inbounds [100 x double], [100 x double]* %7, i64 0, i64 %22
  store double 2.000000e+00, double* %23, align 8
  br label %32

24:                                               ; preds = %15
  %25 = load i32, i32* %5, align 4
  %26 = icmp sge i32 %25, 2
  br i1 %26, label %27, label %31

27:                                               ; preds = %24
  %28 = load i32, i32* %3, align 4
  %29 = sext i32 %28 to i64
  %30 = getelementptr inbounds [100 x double], [100 x double]* %7, i64 0, i64 %29
  store double 3.500000e+00, double* %30, align 8
  br label %31

31:                                               ; preds = %27, %24
  br label %32

32:                                               ; preds = %31, %20
  %33 = getelementptr inbounds [100 x double], [100 x double]* %8, i64 0, i64 0
  store double 2.000000e+00, double* %33, align 16
  %34 = getelementptr inbounds [100 x double], [100 x double]* %8, i64 0, i64 1
  store double 3.000000e+00, double* %34, align 8
  %35 = getelementptr inbounds [100 x double], [100 x double]* %9, i64 0, i64 0
  store double 1.000000e+00, double* %35, align 16
  %36 = getelementptr inbounds [100 x double], [100 x double]* %9, i64 0, i64 1
  store double 2.000000e+00, double* %36, align 8
  store i32 2, i32* %6, align 4
  br label %37

37:                                               ; preds = %87, %32
  %38 = load i32, i32* %6, align 4
  %39 = load i32, i32* %5, align 4
  %40 = icmp slt i32 %38, %39
  br i1 %40, label %41, label %90

41:                                               ; preds = %37
  %42 = load i32, i32* %6, align 4
  %43 = sub nsw i32 %42, 1
  %44 = sext i32 %43 to i64
  %45 = getelementptr inbounds [100 x double], [100 x double]* %8, i64 0, i64 %44
  %46 = load double, double* %45, align 8
  %47 = load i32, i32* %6, align 4
  %48 = sub nsw i32 %47, 2
  %49 = sext i32 %48 to i64
  %50 = getelementptr inbounds [100 x double], [100 x double]* %8, i64 0, i64 %49
  %51 = load double, double* %50, align 8
  %52 = fadd double %46, %51
  %53 = load i32, i32* %6, align 4
  %54 = sext i32 %53 to i64
  %55 = getelementptr inbounds [100 x double], [100 x double]* %8, i64 0, i64 %54
  store double %52, double* %55, align 8
  %56 = load i32, i32* %6, align 4
  %57 = sub nsw i32 %56, 1
  %58 = sext i32 %57 to i64
  %59 = getelementptr inbounds [100 x double], [100 x double]* %9, i64 0, i64 %58
  %60 = load double, double* %59, align 8
  %61 = load i32, i32* %6, align 4
  %62 = sub nsw i32 %61, 2
  %63 = sext i32 %62 to i64
  %64 = getelementptr inbounds [100 x double], [100 x double]* %9, i64 0, i64 %63
  %65 = load double, double* %64, align 8
  %66 = fadd double %60, %65
  %67 = load i32, i32* %6, align 4
  %68 = sext i32 %67 to i64
  %69 = getelementptr inbounds [100 x double], [100 x double]* %9, i64 0, i64 %68
  store double %66, double* %69, align 8
  %70 = load i32, i32* %3, align 4
  %71 = sext i32 %70 to i64
  %72 = getelementptr inbounds [100 x double], [100 x double]* %7, i64 0, i64 %71
  %73 = load double, double* %72, align 8
  %74 = load i32, i32* %6, align 4
  %75 = sext i32 %74 to i64
  %76 = getelementptr inbounds [100 x double], [100 x double]* %8, i64 0, i64 %75
  %77 = load double, double* %76, align 8
  %78 = load i32, i32* %6, align 4
  %79 = sext i32 %78 to i64
  %80 = getelementptr inbounds [100 x double], [100 x double]* %9, i64 0, i64 %79
  %81 = load double, double* %80, align 8
  %82 = fdiv double %77, %81
  %83 = fadd double %73, %82
  %84 = load i32, i32* %3, align 4
  %85 = sext i32 %84 to i64
  %86 = getelementptr inbounds [100 x double], [100 x double]* %7, i64 0, i64 %85
  store double %83, double* %86, align 8
  br label %87

87:                                               ; preds = %41
  %88 = load i32, i32* %6, align 4
  %89 = add nsw i32 %88, 1
  store i32 %89, i32* %6, align 4
  br label %37

90:                                               ; preds = %37
  %91 = load i32, i32* %3, align 4
  %92 = sext i32 %91 to i64
  %93 = getelementptr inbounds [100 x double], [100 x double]* %7, i64 0, i64 %92
  %94 = load double, double* %93, align 8
  %95 = call i32 (i8*, ...) @printf(i8* getelementptr inbounds ([7 x i8], [7 x i8]* @.str.1, i64 0, i64 0), double %94)
  br label %96

96:                                               ; preds = %90
  %97 = load i32, i32* %3, align 4
  %98 = add nsw i32 %97, 1
  store i32 %98, i32* %3, align 4
  br label %11

99:                                               ; preds = %11
  ret i32 0
}

declare dso_local i32 @__isoc99_scanf(i8*, ...) #1

declare dso_local i32 @printf(i8*, ...) #1


!llvm.module.flags = !{!0}
!llvm.ident = !{!1}

!0 = !{i32 1, !"wchar_size", i32 4}
!1 = !{!"clang version 10.0.0-4ubuntu1 "}
